; ModuleID = '24/1624.c'
source_filename = "24/1624.c"
target datalayout = "e-m:e-p270:32:32-p271:32:32-p272:64:64-i64:64-f80:128-n8:16:32:64-S128"
target triple = "x86_64-pc-linux-gnu"

@.str = private unnamed_addr constant [4 x i8] c"%s\0A\00", align 1
@.str.1 = private unnamed_addr constant [3 x i8] c"%s\00", align 1

; Function Attrs: noinline nounwind uwtable
define dso_local i32 @main() #0 {
  %1 = alloca i32, align 4
  %2 = alloca [10000 x i8], align 16
  %3 = alloca [200 x [50 x i8]], align 16
  %4 = alloca [50 x i8], align 16
  %5 = alloca [200 x i32], align 16
  %6 = alloca i32, align 4
  %7 = alloca i32, align 4
  %8 = alloca i32, align 4
  %9 = alloca i32, align 4
  %10 = alloca i32, align 4
  %11 = alloca i32, align 4
  %12 = alloca i32, align 4
  %13 = alloca i32, align 4
  store i32 0, i32* %1, align 4
  store i32 0, i32* %7, align 4
  %14 = getelementptr inbounds [10000 x i8], [10000 x i8]* %2, i64 0, i64 0
  %15 = call i32 (i8*, ...) bitcast (i32 (...)* @gets to i32 (i8*, ...)*)(i8* %14)
  store i32 0, i32* %6, align 4
  br label %16

16:                                               ; preds = %87, %0
  %17 = load i32, i32* %6, align 4
  %18 = icmp slt i32 %17, 200
  br i1 %18, label %19, label %90

19:                                               ; preds = %16
  store i32 0, i32* %9, align 4
  br label %20

20:                                               ; preds = %51, %19
  %21 = load i32, i32* %7, align 4
  %22 = sext i32 %21 to i64
  %23 = getelementptr inbounds [10000 x i8], [10000 x i8]* %2, i64 0, i64 %22
  %24 = load i8, i8* %23, align 1
  %25 = sext i8 %24 to i32
  %26 = icmp ne i32 %25, 32
  br i1 %26, label %27, label %41

27:                                               ; preds = %20
  %28 = load i32, i32* %7, align 4
  %29 = sext i32 %28 to i64
  %30 = getelementptr inbounds [10000 x i8], [10000 x i8]* %2, i64 0, i64 %29
  %31 = load i8, i8* %30, align 1
  %32 = sext i8 %31 to i32
  %33 = icmp ne i32 %32, 44
  br i1 %33, label %34, label %41

34:                                               ; preds = %27
  %35 = load i32, i32* %7, align 4
  %36 = sext i32 %35 to i64
  %37 = getelementptr inbounds [10000 x i8], [10000 x i8]* %2, i64 0, i64 %36
  %38 = load i8, i8* %37, align 1
  %39 = sext i8 %38 to i32
  %40 = icmp ne i32 %39, 0
  br label %41

41:                                               ; preds = %34, %27, %20
  %42 = phi i1 [ false, %27 ], [ false, %20 ], [ %40, %34 ]
  br i1 %42, label %43, label %56

43:                                               ; preds = %41
  %44 = load i32, i32* %7, align 4
  %45 = sext i32 %44 to i64
  %46 = getelementptr inbounds [10000 x i8], [10000 x i8]* %2, i64 0, i64 %45
  %47 = load i8, i8* %46, align 1
  %48 = load i32, i32* %9, align 4
  %49 = sext i32 %48 to i64
  %50 = getelementptr inbounds [50 x i8], [50 x i8]* %4, i64 0, i64 %49
  store i8 %47, i8* %50, align 1
  br label %51

51:                                               ; preds = %43
  %52 = load i32, i32* %9, align 4
  %53 = add nsw i32 %52, 1
  store i32 %53, i32* %9, align 4
  %54 = load i32, i32* %7, align 4
  %55 = add nsw i32 %54, 1
  store i32 %55, i32* %7, align 4
  br label %20

56:                                               ; preds = %41
  %57 = load i32, i32* %9, align 4
  %58 = sext i32 %57 to i64
  %59 = getelementptr inbounds [50 x i8], [50 x i8]* %4, i64 0, i64 %58
  store i8 0, i8* %59, align 1
  %60 = load i32, i32* %6, align 4
  %61 = sext i32 %60 to i64
  %62 = getelementptr inbounds [200 x [50 x i8]], [200 x [50 x i8]]* %3, i64 0, i64 %61
  %63 = getelementptr inbounds [50 x i8], [50 x i8]* %62, i64 0, i64 0
  %64 = getelementptr inbounds [50 x i8], [50 x i8]* %4, i64 0, i64 0
  %65 = call i8* @strcpy(i8* %63, i8* %64) #4
  %66 = load i32, i32* %7, align 4
  %67 = sext i32 %66 to i64
  %68 = getelementptr inbounds [10000 x i8], [10000 x i8]* %2, i64 0, i64 %67
  %69 = load i8, i8* %68, align 1
  %70 = sext i8 %69 to i32
  %71 = icmp eq i32 %70, 0
  br i1 %71, label %72, label %73

72:                                               ; preds = %56
  br label %90

73:                                               ; preds = %56
  %74 = load i32, i32* %7, align 4
  %75 = sext i32 %74 to i64
  %76 = getelementptr inbounds [10000 x i8], [10000 x i8]* %2, i64 0, i64 %75
  %77 = load i8, i8* %76, align 1
  %78 = sext i8 %77 to i32
  %79 = icmp eq i32 %78, 44
  br i1 %79, label %80, label %83

80:                                               ; preds = %73
  %81 = load i32, i32* %7, align 4
  %82 = add nsw i32 %81, 2
  store i32 %82, i32* %7, align 4
  br label %86

83:                                               ; preds = %73
  %84 = load i32, i32* %7, align 4
  %85 = add nsw i32 %84, 1
  store i32 %85, i32* %7, align 4
  br label %86

86:                                               ; preds = %83, %80
  br label %87

87:                                               ; preds = %86
  %88 = load i32, i32* %6, align 4
  %89 = add nsw i32 %88, 1
  store i32 %89, i32* %6, align 4
  br label %16

90:                                               ; preds = %72, %16
  %91 = load i32, i32* %6, align 4
  %92 = add nsw i32 %91, 1
  store i32 %92, i32* %8, align 4
  store i32 0, i32* %9, align 4
  br label %93

93:                                               ; preds = %107, %90
  %94 = load i32, i32* %9, align 4
  %95 = load i32, i32* %8, align 4
  %96 = icmp slt i32 %94, %95
  br i1 %96, label %97, label %110

97:                                               ; preds = %93
  %98 = load i32, i32* %9, align 4
  %99 = sext i32 %98 to i64
  %100 = getelementptr inbounds [200 x [50 x i8]], [200 x [50 x i8]]* %3, i64 0, i64 %99
  %101 = getelementptr inbounds [50 x i8], [50 x i8]* %100, i64 0, i64 0
  %102 = call i64 @strlen(i8* %101) #5
  %103 = trunc i64 %102 to i32
  %104 = load i32, i32* %9, align 4
  %105 = sext i32 %104 to i64
  %106 = getelementptr inbounds [200 x i32], [200 x i32]* %5, i64 0, i64 %105
  store i32 %103, i32* %106, align 4
  br label %107

107:                                              ; preds = %97
  %108 = load i32, i32* %9, align 4
  %109 = add nsw i32 %108, 1
  store i32 %109, i32* %9, align 4
  br label %93

110:                                              ; preds = %93
  %111 = getelementptr inbounds [200 x i32], [200 x i32]* %5, i64 0, i64 0
  %112 = load i32, i32* %111, align 16
  store i32 %112, i32* %10, align 4
  store i32 0, i32* %12, align 4
  store i32 1, i32* %9, align 4
  br label %113

113:                                              ; preds = %131, %110
  %114 = load i32, i32* %9, align 4
  %115 = load i32, i32* %8, align 4
  %116 = icmp slt i32 %114, %115
  br i1 %116, label %117, label %134

117:                                              ; preds = %113
  %118 = load i32, i32* %9, align 4
  %119 = sext i32 %118 to i64
  %120 = getelementptr inbounds [200 x i32], [200 x i32]* %5, i64 0, i64 %119
  %121 = load i32, i32* %120, align 4
  %122 = load i32, i32* %10, align 4
  %123 = icmp sgt i32 %121, %122
  br i1 %123, label %124, label %130

124:                                              ; preds = %117
  %125 = load i32, i32* %9, align 4
  %126 = sext i32 %125 to i64
  %127 = getelementptr inbounds [200 x i32], [200 x i32]* %5, i64 0, i64 %126
  %128 = load i32, i32* %127, align 4
  store i32 %128, i32* %10, align 4
  %129 = load i32, i32* %9, align 4
  store i32 %129, i32* %12, align 4
  br label %130

130:                                              ; preds = %124, %117
  br label %131

131:                                              ; preds = %130
  %132 = load i32, i32* %9, align 4
  %133 = add nsw i32 %132, 1
  store i32 %133, i32* %9, align 4
  br label %113

134:                                              ; preds = %113
  %135 = getelementptr inbounds [200 x i32], [200 x i32]* %5, i64 0, i64 0
  %136 = load i32, i32* %135, align 16
  store i32 %136, i32* %11, align 4
  store i32 0, i32* %13, align 4
  store i32 1, i32* %9, align 4
  br label %137

137:                                              ; preds = %155, %134
  %138 = load i32, i32* %9, align 4
  %139 = load i32, i32* %8, align 4
  %140 = icmp slt i32 %138, %139
  br i1 %140, label %141, label %158

141:                                              ; preds = %137
  %142 = load i32, i32* %9, align 4
  %143 = sext i32 %142 to i64
  %144 = getelementptr inbounds [200 x i32], [200 x i32]* %5, i64 0, i64 %143
  %145 = load i32, i32* %144, align 4
  %146 = load i32, i32* %11, align 4
  %147 = icmp slt i32 %145, %146
  br i1 %147, label %148, label %154

148:                                              ; preds = %141
  %149 = load i32, i32* %9, align 4
  %150 = sext i32 %149 to i64
  %151 = getelementptr inbounds [200 x i32], [200 x i32]* %5, i64 0, i64 %150
  %152 = load i32, i32* %151, align 4
  store i32 %152, i32* %11, align 4
  %153 = load i32, i32* %9, align 4
  store i32 %153, i32* %13, align 4
  br label %154

154:                                              ; preds = %148, %141
  br label %155

155:                                              ; preds = %154
  %156 = load i32, i32* %9, align 4
  %157 = add nsw i32 %156, 1
  store i32 %157, i32* %9, align 4
  br label %137

158:                                              ; preds = %137
  %159 = load i32, i32* %12, align 4
  %160 = sext i32 %159 to i64
  %161 = getelementptr inbounds [200 x [50 x i8]], [200 x [50 x i8]]* %3, i64 0, i64 %160
  %162 = getelementptr inbounds [50 x i8], [50 x i8]* %161, i64 0, i64 0
  %163 = call i32 (i8*, ...) @printf(i8* getelementptr inbounds ([4 x i8], [4 x i8]* @.str, i64 0, i64 0), i8* %162)
  %164 = load i32, i32* %13, align 4
  %165 = sext i32 %164 to i64
  %166 = getelementptr inbounds [200 x [50 x i8]], [200 x [50 x i8]]* %3, i64 0, i64 %165
  %167 = getelementptr inbounds [50 x i8], [50 x i8]* %166, i64 0, i64 0
  %168 = call i32 (i8*, ...) @printf(i8* getelementptr inbounds ([3 x i8], [3 x i8]* @.str.1, i64 0, i64 0), i8* %167)
  ret i32 0
}

declare dso_local i32 @gets(...) #1

; Function Attrs: nounwind
declare dso_local i8* @strcpy(i8*, i8*) #2

; Function Attrs: nounwind readonly
declare dso_local i64 @strlen(i8*) #3

declare dso_local i32 @printf(i8*, ...) #1


!llvm.module.flags = !{!0}
!llvm.ident = !{!1}

!0 = !{i32 1, !"wchar_size", i32 4}
!1 = !{!"clang version 10.0.0-4ubuntu1 "}
